; Function Attrs: nounwind uwtable
define internal void @default_err_cb(ptr noundef captures(none) %0, i64 %1, ptr %2) #0 {
  %4 = tail call { i64, ptr } @jq_format_error(i64 %1, ptr %2)
  %5 = extractvalue { i64, ptr } %4, 0
  %6 = extractvalue { i64, ptr } %4, 1
  %7 = tail call ptr @jv_string_value(i64 %5, ptr %6) #13
  %8 = tail call i32 (ptr, ptr, ...) @fprintf(ptr noundef %0, ptr noundef nonnull @.str.24, ptr noundef %7) #13
  tail call void @jv_free(i64 %5, ptr %6) #13
  ret void
}